
build/quicksort.elf:     file format elf64-littleriscv


Disassembly of section .text:

0000000080000000 <_start>:
    80000000:	00000413          	li	s0,0
    80000004:	00009117          	auipc	sp,0x9
    80000008:	ffc10113          	addi	sp,sp,-4 # 80009000 <_end>
    8000000c:	3a0000ef          	jal	ra,800003ac <_trm_init>

0000000080000010 <check>:
    80000010:	00050463          	beqz	a0,80000018 <check+0x8>
    80000014:	00008067          	ret
    80000018:	00100513          	li	a0,1
    8000001c:	3840006f          	j	800003a0 <halt>

0000000080000020 <partition>:
    80000020:	00050893          	mv	a7,a0
    80000024:	00060513          	mv	a0,a2
    80000028:	00259613          	slli	a2,a1,0x2
    8000002c:	00c886b3          	add	a3,a7,a2
    80000030:	0006a803          	lw	a6,0(a3)
    80000034:	08a5d863          	bge	a1,a0,800000c4 <partition+0xa4>
    80000038:	00251793          	slli	a5,a0,0x2
    8000003c:	00f887b3          	add	a5,a7,a5
    80000040:	0007a783          	lw	a5,0(a5)
    80000044:	fff50693          	addi	a3,a0,-1
    80000048:	00269693          	slli	a3,a3,0x2
    8000004c:	00d886b3          	add	a3,a7,a3
    80000050:	00068713          	mv	a4,a3
    80000054:	02f85663          	bge	a6,a5,80000080 <partition+0x60>
    80000058:	fff5051b          	addiw	a0,a0,-1
    8000005c:	00072783          	lw	a5,0(a4)
    80000060:	ffc70693          	addi	a3,a4,-4
    80000064:	fea5c6e3          	blt	a1,a0,80000050 <partition+0x30>
    80000068:	00c886b3          	add	a3,a7,a2
    8000006c:	00f6a023          	sw	a5,0(a3)
    80000070:	00058513          	mv	a0,a1
    80000074:	00f72023          	sw	a5,0(a4)
    80000078:	0106a023          	sw	a6,0(a3)
    8000007c:	00008067          	ret
    80000080:	00c886b3          	add	a3,a7,a2
    80000084:	00251713          	slli	a4,a0,0x2
    80000088:	00f6a023          	sw	a5,0(a3)
    8000008c:	00e88733          	add	a4,a7,a4
    80000090:	04a5d063          	bge	a1,a0,800000d0 <partition+0xb0>
    80000094:	00460613          	addi	a2,a2,4
    80000098:	00c88633          	add	a2,a7,a2
    8000009c:	0015859b          	addiw	a1,a1,1
    800000a0:	00062783          	lw	a5,0(a2)
    800000a4:	00060693          	mv	a3,a2
    800000a8:	00460613          	addi	a2,a2,4
    800000ac:	fca584e3          	beq	a1,a0,80000074 <partition+0x54>
    800000b0:	fef856e3          	bge	a6,a5,8000009c <partition+0x7c>
    800000b4:	00f72023          	sw	a5,0(a4)
    800000b8:	02a5d063          	bge	a1,a0,800000d8 <partition+0xb8>
    800000bc:	00259613          	slli	a2,a1,0x2
    800000c0:	f85ff06f          	j	80000044 <partition+0x24>
    800000c4:	00058513          	mv	a0,a1
    800000c8:	0106a023          	sw	a6,0(a3)
    800000cc:	00008067          	ret
    800000d0:	00058513          	mv	a0,a1
    800000d4:	fa1ff06f          	j	80000074 <partition+0x54>
    800000d8:	00259693          	slli	a3,a1,0x2
    800000dc:	00d886b3          	add	a3,a7,a3
    800000e0:	00058513          	mv	a0,a1
    800000e4:	f95ff06f          	j	80000078 <partition+0x58>

00000000800000e8 <quick_sort>:
    800000e8:	1ec5da63          	bge	a1,a2,800002dc <quick_sort+0x1f4>
    800000ec:	f5010113          	addi	sp,sp,-176
    800000f0:	0a813023          	sd	s0,160(sp)
    800000f4:	07513c23          	sd	s5,120(sp)
    800000f8:	07713423          	sd	s7,104(sp)
    800000fc:	0a113423          	sd	ra,168(sp)
    80000100:	08913c23          	sd	s1,152(sp)
    80000104:	09213823          	sd	s2,144(sp)
    80000108:	09313423          	sd	s3,136(sp)
    8000010c:	09413023          	sd	s4,128(sp)
    80000110:	07613823          	sd	s6,112(sp)
    80000114:	07813023          	sd	s8,96(sp)
    80000118:	05913c23          	sd	s9,88(sp)
    8000011c:	05a13823          	sd	s10,80(sp)
    80000120:	05b13423          	sd	s11,72(sp)
    80000124:	00058b93          	mv	s7,a1
    80000128:	00060a93          	mv	s5,a2
    8000012c:	00050413          	mv	s0,a0
    80000130:	000a8613          	mv	a2,s5
    80000134:	000b8593          	mv	a1,s7
    80000138:	00040513          	mv	a0,s0
    8000013c:	ee5ff0ef          	jal	ra,80000020 <partition>
    80000140:	00a13423          	sd	a0,8(sp)
    80000144:	fff50c9b          	addiw	s9,a0,-1
    80000148:	159bd663          	bge	s7,s9,80000294 <quick_sort+0x1ac>
    8000014c:	000c8613          	mv	a2,s9
    80000150:	000b8593          	mv	a1,s7
    80000154:	00040513          	mv	a0,s0
    80000158:	ec9ff0ef          	jal	ra,80000020 <partition>
    8000015c:	00a13823          	sd	a0,16(sp)
    80000160:	fff50d1b          	addiw	s10,a0,-1
    80000164:	13abd263          	bge	s7,s10,80000288 <quick_sort+0x1a0>
    80000168:	000d0613          	mv	a2,s10
    8000016c:	000b8593          	mv	a1,s7
    80000170:	00040513          	mv	a0,s0
    80000174:	eadff0ef          	jal	ra,80000020 <partition>
    80000178:	00a13c23          	sd	a0,24(sp)
    8000017c:	fff50d9b          	addiw	s11,a0,-1
    80000180:	0fbbde63          	bge	s7,s11,8000027c <quick_sort+0x194>
    80000184:	000d8613          	mv	a2,s11
    80000188:	000b8593          	mv	a1,s7
    8000018c:	00040513          	mv	a0,s0
    80000190:	e91ff0ef          	jal	ra,80000020 <partition>
    80000194:	02a13023          	sd	a0,32(sp)
    80000198:	fff5099b          	addiw	s3,a0,-1
    8000019c:	0d3bda63          	bge	s7,s3,80000270 <quick_sort+0x188>
    800001a0:	00098613          	mv	a2,s3
    800001a4:	000b8593          	mv	a1,s7
    800001a8:	00040513          	mv	a0,s0
    800001ac:	e75ff0ef          	jal	ra,80000020 <partition>
    800001b0:	fff5091b          	addiw	s2,a0,-1
    800001b4:	00050493          	mv	s1,a0
    800001b8:	0b2bd863          	bge	s7,s2,80000268 <quick_sort+0x180>
    800001bc:	00090613          	mv	a2,s2
    800001c0:	000b8593          	mv	a1,s7
    800001c4:	00040513          	mv	a0,s0
    800001c8:	e59ff0ef          	jal	ra,80000020 <partition>
    800001cc:	fff50b1b          	addiw	s6,a0,-1
    800001d0:	00050a13          	mv	s4,a0
    800001d4:	096bd663          	bge	s7,s6,80000260 <quick_sort+0x178>
    800001d8:	000b0613          	mv	a2,s6
    800001dc:	000b8593          	mv	a1,s7
    800001e0:	00040513          	mv	a0,s0
    800001e4:	e3dff0ef          	jal	ra,80000020 <partition>
    800001e8:	02a13423          	sd	a0,40(sp)
    800001ec:	fff50c1b          	addiw	s8,a0,-1
    800001f0:	078bd263          	bge	s7,s8,80000254 <quick_sort+0x16c>
    800001f4:	000c0613          	mv	a2,s8
    800001f8:	000b8593          	mv	a1,s7
    800001fc:	00040513          	mv	a0,s0
    80000200:	e21ff0ef          	jal	ra,80000020 <partition>
    80000204:	fff5081b          	addiw	a6,a0,-1
    80000208:	00050713          	mv	a4,a0
    8000020c:	050bd063          	bge	s7,a6,8000024c <quick_sort+0x164>
    80000210:	00080613          	mv	a2,a6
    80000214:	000b8593          	mv	a1,s7
    80000218:	00040513          	mv	a0,s0
    8000021c:	02e13c23          	sd	a4,56(sp)
    80000220:	03013823          	sd	a6,48(sp)
    80000224:	dfdff0ef          	jal	ra,80000020 <partition>
    80000228:	00050893          	mv	a7,a0
    8000022c:	000b8593          	mv	a1,s7
    80000230:	fff5061b          	addiw	a2,a0,-1
    80000234:	00040513          	mv	a0,s0
    80000238:	00188b9b          	addiw	s7,a7,1
    8000023c:	eadff0ef          	jal	ra,800000e8 <quick_sort>
    80000240:	03013803          	ld	a6,48(sp)
    80000244:	03813703          	ld	a4,56(sp)
    80000248:	fd0bc4e3          	blt	s7,a6,80000210 <quick_sort+0x128>
    8000024c:	00170b9b          	addiw	s7,a4,1
    80000250:	fb8bc2e3          	blt	s7,s8,800001f4 <quick_sort+0x10c>
    80000254:	02813783          	ld	a5,40(sp)
    80000258:	00178b9b          	addiw	s7,a5,1
    8000025c:	f76bcee3          	blt	s7,s6,800001d8 <quick_sort+0xf0>
    80000260:	001a0b9b          	addiw	s7,s4,1
    80000264:	f52bcce3          	blt	s7,s2,800001bc <quick_sort+0xd4>
    80000268:	00148b9b          	addiw	s7,s1,1
    8000026c:	f33bcae3          	blt	s7,s3,800001a0 <quick_sort+0xb8>
    80000270:	02013783          	ld	a5,32(sp)
    80000274:	00178b9b          	addiw	s7,a5,1
    80000278:	f1bbc6e3          	blt	s7,s11,80000184 <quick_sort+0x9c>
    8000027c:	01813783          	ld	a5,24(sp)
    80000280:	00178b9b          	addiw	s7,a5,1
    80000284:	efabc2e3          	blt	s7,s10,80000168 <quick_sort+0x80>
    80000288:	01013783          	ld	a5,16(sp)
    8000028c:	00178b9b          	addiw	s7,a5,1
    80000290:	eb9bcee3          	blt	s7,s9,8000014c <quick_sort+0x64>
    80000294:	00813783          	ld	a5,8(sp)
    80000298:	00178b9b          	addiw	s7,a5,1
    8000029c:	e95bcae3          	blt	s7,s5,80000130 <quick_sort+0x48>
    800002a0:	0a813083          	ld	ra,168(sp)
    800002a4:	0a013403          	ld	s0,160(sp)
    800002a8:	09813483          	ld	s1,152(sp)
    800002ac:	09013903          	ld	s2,144(sp)
    800002b0:	08813983          	ld	s3,136(sp)
    800002b4:	08013a03          	ld	s4,128(sp)
    800002b8:	07813a83          	ld	s5,120(sp)
    800002bc:	07013b03          	ld	s6,112(sp)
    800002c0:	06813b83          	ld	s7,104(sp)
    800002c4:	06013c03          	ld	s8,96(sp)
    800002c8:	05813c83          	ld	s9,88(sp)
    800002cc:	05013d03          	ld	s10,80(sp)
    800002d0:	04813d83          	ld	s11,72(sp)
    800002d4:	0b010113          	addi	sp,sp,176
    800002d8:	00008067          	ret
    800002dc:	00008067          	ret

00000000800002e0 <main>:
    800002e0:	fd010113          	addi	sp,sp,-48
    800002e4:	00000517          	auipc	a0,0x0
    800002e8:	0f450513          	addi	a0,a0,244 # 800003d8 <a>
    800002ec:	00913c23          	sd	s1,24(sp)
    800002f0:	01300613          	li	a2,19
    800002f4:	00050493          	mv	s1,a0
    800002f8:	00000593          	li	a1,0
    800002fc:	02813023          	sd	s0,32(sp)
    80000300:	01213823          	sd	s2,16(sp)
    80000304:	01313423          	sd	s3,8(sp)
    80000308:	02113423          	sd	ra,40(sp)
    8000030c:	00048913          	mv	s2,s1
    80000310:	dd9ff0ef          	jal	ra,800000e8 <quick_sort>
    80000314:	00000413          	li	s0,0
    80000318:	01400993          	li	s3,20
    8000031c:	00092503          	lw	a0,0(s2)
    80000320:	00490913          	addi	s2,s2,4
    80000324:	40850533          	sub	a0,a0,s0
    80000328:	00153513          	seqz	a0,a0
    8000032c:	0014041b          	addiw	s0,s0,1
    80000330:	ce1ff0ef          	jal	ra,80000010 <check>
    80000334:	ff3414e3          	bne	s0,s3,8000031c <main+0x3c>
    80000338:	00100513          	li	a0,1
    8000033c:	cd5ff0ef          	jal	ra,80000010 <check>
    80000340:	01300613          	li	a2,19
    80000344:	00000593          	li	a1,0
    80000348:	00000517          	auipc	a0,0x0
    8000034c:	09050513          	addi	a0,a0,144 # 800003d8 <a>
    80000350:	d99ff0ef          	jal	ra,800000e8 <quick_sort>
    80000354:	00000413          	li	s0,0
    80000358:	01400913          	li	s2,20
    8000035c:	0004a503          	lw	a0,0(s1)
    80000360:	00448493          	addi	s1,s1,4
    80000364:	40850533          	sub	a0,a0,s0
    80000368:	00153513          	seqz	a0,a0
    8000036c:	0014041b          	addiw	s0,s0,1
    80000370:	ca1ff0ef          	jal	ra,80000010 <check>
    80000374:	ff2414e3          	bne	s0,s2,8000035c <main+0x7c>
    80000378:	00100513          	li	a0,1
    8000037c:	c95ff0ef          	jal	ra,80000010 <check>
    80000380:	02813083          	ld	ra,40(sp)
    80000384:	02013403          	ld	s0,32(sp)
    80000388:	01813483          	ld	s1,24(sp)
    8000038c:	01013903          	ld	s2,16(sp)
    80000390:	00813983          	ld	s3,8(sp)
    80000394:	00000513          	li	a0,0
    80000398:	03010113          	addi	sp,sp,48
    8000039c:	00008067          	ret

00000000800003a0 <halt>:
    800003a0:	00050513          	mv	a0,a0
    800003a4:	00100073          	ebreak
    800003a8:	0000006f          	j	800003a8 <halt+0x8>

00000000800003ac <_trm_init>:
    800003ac:	ff010113          	addi	sp,sp,-16
    800003b0:	00000517          	auipc	a0,0x0
    800003b4:	02050513          	addi	a0,a0,32 # 800003d0 <mainargs>
    800003b8:	00113423          	sd	ra,8(sp)
    800003bc:	f25ff0ef          	jal	ra,800002e0 <main>
    800003c0:	00050513          	mv	a0,a0
    800003c4:	00100073          	ebreak
    800003c8:	0000006f          	j	800003c8 <_trm_init+0x1c>
